target datalayout = "e-m:e-p270:32:32-p271:32:32-p272:64:64-i64:64-i128:128-f80:128-n8:16:32:64-S128"
target triple = "x86_64-pc-linux-gnu"

%struct.SockAddr = type { %struct.sockaddr_storage, i32 }
%struct.sockaddr_storage = type { i16, [118 x i8], i64 }
%struct.Port = type { i32, i8, i32, %struct.SockAddr, %struct.SockAddr, ptr, ptr, i32, i32, ptr, ptr, ptr, ptr, ptr, ptr, ptr, i32, i32, i32, i32, i32, i32, i32, i32, [32 x i8], [32 x i8], i8, ptr, i8, ptr, ptr, i8, i8, i8, ptr, ptr, ptr, i64, i64 }

@.str.2 = private unnamed_addr constant [9 x i8] c"pqcomm.c\00", align 1
@.str.3 = private unnamed_addr constant [18 x i8] c"%s(%s) failed: %m\00", align 1
@.str.35 = private unnamed_addr constant [11 x i8] c"getsockopt\00", align 1
@.str.38 = private unnamed_addr constant [12 x i8] c"TCP_KEEPCNT\00", align 1
@__func__.pq_getkeepalivescount = private unnamed_addr constant [22 x i8] c"pq_getkeepalivescount\00", align 1

; Function Attrs: nounwind uwtable
define dso_local i32 @pq_getkeepalivescount(ptr noundef %0) #0 {
  %2 = alloca i32, align 4
  %3 = alloca ptr, align 8
  %4 = alloca i32, align 4
  store ptr %0, ptr %3, align 8
  %5 = load ptr, ptr %3, align 8
  %6 = icmp eq ptr %5, null
  br i1 %6, label %15, label %7

7:                                                ; preds = %1
  %8 = load ptr, ptr %3, align 8
  %9 = getelementptr inbounds nuw %struct.Port, ptr %8, i32 0, i32 3
  %10 = getelementptr inbounds nuw %struct.SockAddr, ptr %9, i32 0, i32 0
  %11 = getelementptr inbounds nuw %struct.sockaddr_storage, ptr %10, i32 0, i32 0
  %12 = load i16, ptr %11, align 8
  %13 = zext i16 %12 to i32
  %14 = icmp eq i32 %13, 1
  br i1 %14, label %15, label %16

15:                                               ; preds = %7, %1
  store i32 0, ptr %2, align 4
  br label %56

16:                                               ; preds = %7
  %17 = load ptr, ptr %3, align 8
  %18 = getelementptr inbounds nuw %struct.Port, ptr %17, i32 0, i32 22
  %19 = load i32, ptr %18, align 8
  %20 = icmp ne i32 %19, 0
  br i1 %20, label %21, label %25

21:                                               ; preds = %16
  %22 = load ptr, ptr %3, align 8
  %23 = getelementptr inbounds nuw %struct.Port, ptr %22, i32 0, i32 22
  %24 = load i32, ptr %23, align 8
  store i32 %24, ptr %2, align 4
  br label %56

25:                                               ; preds = %16
  %26 = load ptr, ptr %3, align 8
  %27 = getelementptr inbounds nuw %struct.Port, ptr %26, i32 0, i32 18
  %28 = load i32, ptr %27, align 8
  %29 = icmp eq i32 %28, 0
  br i1 %29, label %30, label %52

30:                                               ; preds = %25
  call void @llvm.lifetime.start.p0(i64 4, ptr %4) #14
  store i32 4, ptr %4, align 4
  %31 = load ptr, ptr %3, align 8
  %32 = getelementptr inbounds nuw %struct.Port, ptr %31, i32 0, i32 0
  %33 = load i32, ptr %32, align 8
  %34 = load ptr, ptr %3, align 8
  %35 = getelementptr inbounds nuw %struct.Port, ptr %34, i32 0, i32 18
  %36 = call i32 @getsockopt(i32 noundef %33, i32 noundef 6, i32 noundef 6, ptr noundef %35, ptr noundef %4) #14
  %37 = icmp slt i32 %36, 0
  br i1 %37, label %38, label %51

38:                                               ; preds = %30
  br label %39

39:                                               ; preds = %38
  br i1 false, label %40, label %42

40:                                               ; preds = %39
  %41 = call zeroext i1 @errstart_cold(i32 noundef 15, ptr noundef null) #15
  br i1 %41, label %44, label %46

42:                                               ; preds = %39
  %43 = call zeroext i1 @errstart(i32 noundef 15, ptr noundef null)
  br i1 %43, label %44, label %46

44:                                               ; preds = %42, %40
  %45 = call i32 (ptr, ...) @errmsg(ptr noundef @.str.3, ptr noundef @.str.35, ptr noundef @.str.38)
  call void @errfinish(ptr noundef @.str.2, i32 noundef 1817, ptr noundef @__func__.pq_getkeepalivescount)
  br label %46

46:                                               ; preds = %44, %42, %40
  br label %47

47:                                               ; preds = %46
  br label %48

48:                                               ; preds = %47
  %49 = load ptr, ptr %3, align 8
  %50 = getelementptr inbounds nuw %struct.Port, ptr %49, i32 0, i32 18
  store i32 -1, ptr %50, align 8
  br label %51

51:                                               ; preds = %48, %30
  call void @llvm.lifetime.end.p0(i64 4, ptr %4) #14
  br label %52

52:                                               ; preds = %51, %25
  %53 = load ptr, ptr %3, align 8
  %54 = getelementptr inbounds nuw %struct.Port, ptr %53, i32 0, i32 18
  %55 = load i32, ptr %54, align 8
  store i32 %55, ptr %2, align 4
  br label %56

56:                                               ; preds = %52, %21, %15
  %57 = load i32, ptr %2, align 4
  ret i32 %57
}